target datalayout = "e-m:e-p270:32:32-p271:32:32-p272:64:64-i64:64-i128:128-f80:128-n8:16:32:64-S128"
target triple = "x86_64-pc-linux-gnu"

%struct.bn_mont_ctx_st = type { %struct.bignum_st, %struct.bignum_st, [2 x i64] }
%struct.bignum_st = type { ptr, i32, i32, i32, i32 }

; Function Attrs: nounwind uwtable
define hidden ptr @BN_MONT_CTX_new() #0 {
  %1 = alloca ptr, align 8
  %2 = alloca ptr, align 8
  %3 = alloca i32, align 4
  call void @llvm.lifetime.start.p0(i64 8, ptr %2) #6
  %4 = call noalias ptr @malloc(i64 noundef 64) #7
  store ptr %4, ptr %2, align 8, !tbaa !6
  %5 = load ptr, ptr %2, align 8, !tbaa !6
  %6 = icmp eq ptr %5, null
  br i1 %6, label %7, label %8

7:                                                ; preds = %0
  store ptr null, ptr %1, align 8
  store i32 1, ptr %3, align 4
  br label %15

8:                                                ; preds = %0
  %9 = load ptr, ptr %2, align 8, !tbaa !6
  call void @llvm.memset.p0.i64(ptr align 8 %9, i8 0, i64 64, i1 false)
  %10 = load ptr, ptr %2, align 8, !tbaa !6
  %11 = getelementptr inbounds nuw %struct.bn_mont_ctx_st, ptr %10, i32 0, i32 0
  call void @BN_init(ptr noundef %11)
  %12 = load ptr, ptr %2, align 8, !tbaa !6
  %13 = getelementptr inbounds nuw %struct.bn_mont_ctx_st, ptr %12, i32 0, i32 1
  call void @BN_init(ptr noundef %13)
  %14 = load ptr, ptr %2, align 8, !tbaa !6
  store ptr %14, ptr %1, align 8
  store i32 1, ptr %3, align 4
  br label %15

15:                                               ; preds = %8, %7
  call void @llvm.lifetime.end.p0(i64 8, ptr %2) #6
  %16 = load ptr, ptr %1, align 8
  ret ptr %16
}