; Function Attrs: nounwind uwtable
define hidden noundef ptr @BN_MONT_CTX_new() local_unnamed_addr #0 {
  %calloc = tail call dereferenceable_or_null(64) ptr @calloc(i64 1, i64 64)
  %1 = icmp eq ptr %calloc, null
  br i1 %1, label %4, label %2

2:                                                ; preds = %0
  tail call void @BN_init(ptr noundef nonnull %calloc) #6
  %3 = getelementptr inbounds nuw i8, ptr %calloc, i64 24
  tail call void @BN_init(ptr noundef nonnull %3) #6
  br label %4

4:                                                ; preds = %0, %2
  ret ptr %calloc
}